; Function Attrs: nounwind uwtable
define dso_local i64 @jsonb_agg_finalfn(ptr noundef captures(none) %0) local_unnamed_addr #0 {
  %2 = alloca %struct.JsonbInState, align 8
  call void @llvm.lifetime.start.p0(i64 32, ptr nonnull %2) #11
  %3 = getelementptr inbounds nuw i8, ptr %0, i64 40
  %4 = load i8, ptr %3, align 8, !range !7, !noundef !8
  %5 = trunc nuw i8 %4 to i1
  br i1 %5, label %6, label %8

6:                                                ; preds = %1
  %7 = getelementptr inbounds nuw i8, ptr %0, i64 28
  store i8 1, ptr %7, align 4
  br label %50

8:                                                ; preds = %1
  %9 = getelementptr inbounds nuw i8, ptr %0, i64 32
  %10 = load i64, ptr %9, align 8
  %11 = inttoptr i64 %10 to ptr
  %12 = getelementptr inbounds nuw i8, ptr %2, i64 8
  call void @llvm.memset.p0.i64(ptr noundef nonnull align 8 dereferenceable(32) %12, i8 0, i64 24, i1 false)
  %13 = load ptr, ptr %11, align 8
  %14 = load ptr, ptr %13, align 8
  %15 = icmp eq ptr %14, null
  br i1 %15, label %clone_parse_state.exit, label %16

16:                                               ; preds = %8
  %17 = tail call ptr @palloc(i64 noundef 56) #11
  tail call void @llvm.memcpy.p0.p0.i64(ptr noundef nonnull align 8 dereferenceable(32) %17, ptr noundef nonnull readonly align 8 dereferenceable(32) %14, i64 32, i1 false)
  %18 = getelementptr inbounds nuw i8, ptr %14, i64 32
  %19 = load i64, ptr %18, align 8
  %20 = getelementptr inbounds nuw i8, ptr %17, i64 32
  store i64 %19, ptr %20, align 8
  %21 = getelementptr inbounds nuw i8, ptr %14, i64 48
  %22 = load i8, ptr %21, align 8, !range !7, !noundef !8
  %23 = getelementptr inbounds nuw i8, ptr %17, i64 48
  store i8 %22, ptr %23, align 8
  %24 = getelementptr inbounds nuw i8, ptr %14, i64 49
  %25 = load i8, ptr %24, align 1, !range !7, !noundef !8
  %26 = getelementptr inbounds nuw i8, ptr %17, i64 49
  store i8 %25, ptr %26, align 1
  %27 = getelementptr inbounds nuw i8, ptr %14, i64 40
  %28 = load ptr, ptr %27, align 8
  %29 = icmp eq ptr %28, null
  br i1 %29, label %._crit_edge.i, label %.lr.ph.i

.lr.ph.i:                                         ; preds = %16, %.lr.ph.i
  %30 = phi ptr [ %43, %.lr.ph.i ], [ %28, %16 ]
  %.022.i = phi ptr [ %31, %.lr.ph.i ], [ %17, %16 ]
  %31 = tail call ptr @palloc(i64 noundef 56) #11
  %32 = getelementptr inbounds nuw i8, ptr %.022.i, i64 40
  store ptr %31, ptr %32, align 8
  tail call void @llvm.memcpy.p0.p0.i64(ptr noundef nonnull align 8 dereferenceable(32) %31, ptr noundef nonnull align 8 dereferenceable(32) %30, i64 32, i1 false)
  %33 = getelementptr inbounds nuw i8, ptr %30, i64 32
  %34 = load i64, ptr %33, align 8
  %35 = getelementptr inbounds nuw i8, ptr %31, i64 32
  store i64 %34, ptr %35, align 8
  %36 = getelementptr inbounds nuw i8, ptr %30, i64 48
  %37 = load i8, ptr %36, align 8, !range !7, !noundef !8
  %38 = getelementptr inbounds nuw i8, ptr %31, i64 48
  store i8 %37, ptr %38, align 8
  %39 = getelementptr inbounds nuw i8, ptr %30, i64 49
  %40 = load i8, ptr %39, align 1, !range !7, !noundef !8
  %41 = getelementptr inbounds nuw i8, ptr %31, i64 49
  store i8 %40, ptr %41, align 1
  %42 = getelementptr inbounds nuw i8, ptr %30, i64 40
  %43 = load ptr, ptr %42, align 8
  %44 = icmp eq ptr %43, null
  br i1 %44, label %._crit_edge.i, label %.lr.ph.i

._crit_edge.i:                                    ; preds = %.lr.ph.i, %16
  %.0.lcssa.i = phi ptr [ %17, %16 ], [ %31, %.lr.ph.i ]
  %45 = getelementptr inbounds nuw i8, ptr %.0.lcssa.i, i64 40
  store ptr null, ptr %45, align 8
  br label %clone_parse_state.exit

clone_parse_state.exit:                           ; preds = %8, %._crit_edge.i
  %.019.i = phi ptr [ %17, %._crit_edge.i ], [ null, %8 ]
  store ptr %.019.i, ptr %2, align 8
  %46 = call ptr @pushJsonbValue(ptr noundef nonnull %2, i32 noundef 5, ptr noundef null) #11
  %47 = getelementptr inbounds nuw i8, ptr %2, i64 8
  store ptr %46, ptr %47, align 8
  %48 = call ptr @JsonbValueToJsonb(ptr noundef %46) #11
  %49 = ptrtoint ptr %48 to i64
  br label %50

50:                                               ; preds = %clone_parse_state.exit, %6
  %.0 = phi i64 [ 0, %6 ], [ %49, %clone_parse_state.exit ]
  call void @llvm.lifetime.end.p0(i64 32, ptr nonnull %2) #11
  ret i64 %.0
}